#include <math.h>
#include <stdio.h>
#include <stdlib.h>
#include <string.h>
#include <iostream>
using namespace std;

/*
 * feibonaqi.cpp
 *?? - 1063 ??????
 *?? ?????????????: ?????????????1????????????2?????
???????a???????????a??????
 *  Created on: 2013-11-18
 *      Author: ???
 */
int f[20] = { 1 , 1 }; // ??????
void cal(int x){ // ????????
	f[x] = f[ x - 1 ] + f[ x - 2 ];
}
int main(){
	int n , a , needle = 1; // ??????????? needle ??
	for(cin >> n; n --; ){
		cin >> a;
		for(int i = needle + 1; i < a; i ++) // ??????????? a ?
			cal(i);
		cout << f[ a - 1 ] << endl;
	}
	return 0;
}
